target datalayout = "e-m:e-p270:32:32-p271:32:32-p272:64:64-i64:64-i128:128-f80:128-n8:16:32:64-S128"
target triple = "x86_64-pc-linux-gnu"

%struct.trace_key = type { ptr, i32, i8 }
%struct.object_id = type { [32 x i8], i32 }
%struct.oid_array = type { ptr, i64, i64, i32 }
%struct.shallow_info = type { ptr, ptr, i64, ptr, i64, ptr, ptr, ptr, ptr, ptr, ptr, i64 }
%struct.command = type { ptr, ptr, ptr, ptr, i8, i32, %struct.object_id, %struct.object_id, [0 x i8] }
%struct.check_connected_options = type { i32, ptr, ptr, i32, i32, ptr, i8, ptr }
%struct.shallow_lock = type { %struct.lock_file }
%struct.lock_file = type { ptr }

@.str.10 = private unnamed_addr constant [23 x i8] c"builtin/receive-pack.c\00", align 1
@the_repository = external global ptr, align 8
@tmp_objdir = internal global ptr null, align 8
@trace_shallow = external global %struct.trace_key, align 8
@.str.206 = private unnamed_addr constant [32 x i8] c"shallow: update_shallow_ref %s\0A\00", align 1

; Function Attrs: inlinehint nounwind uwtable
define internal i32 @trace_pass_fl(ptr noundef %0) #5 {
  %2 = alloca ptr, align 8
  store ptr %0, ptr %2, align 8, !tbaa !238
  %3 = load ptr, ptr %2, align 8, !tbaa !238
  %4 = getelementptr inbounds nuw %struct.trace_key, ptr %3, i32 0, i32 1
  %5 = load i32, ptr %4, align 8, !tbaa !240
  %6 = icmp ne i32 %5, 0
  br i1 %6, label %15, label %7

7:                                                ; preds = %1
  %8 = load ptr, ptr %2, align 8, !tbaa !238
  %9 = getelementptr inbounds nuw %struct.trace_key, ptr %8, i32 0, i32 2
  %10 = load i8, ptr %9, align 4
  %11 = and i8 %10, 1
  %12 = zext i8 %11 to i32
  %13 = icmp ne i32 %12, 0
  %14 = xor i1 %13, true
  br label %15

15:                                               ; preds = %7, %1
  %16 = phi i1 [ true, %1 ], [ %14, %7 ]
  %17 = zext i1 %16 to i32
  ret i32 %17
}

; Function Attrs: nounwind uwtable
define internal i32 @update_shallow_ref(ptr noundef %0, ptr noundef %1) #0 {
  %3 = alloca i32, align 4
  %4 = alloca ptr, align 8
  %5 = alloca ptr, align 8
  %6 = alloca %struct.shallow_lock, align 8
  %7 = alloca %struct.oid_array, align 8
  %8 = alloca %struct.check_connected_options, align 8
  %9 = alloca i32, align 4
  %10 = alloca i32, align 4
  %11 = alloca i32, align 4
  store ptr %0, ptr %4, align 8, !tbaa !29
  store ptr %1, ptr %5, align 8, !tbaa !100
  call void @llvm.lifetime.start.p0(i64 8, ptr %6) #15
  call void @llvm.memset.p0.i64(ptr align 8 %6, i8 0, i64 8, i1 false)
  call void @llvm.lifetime.start.p0(i64 32, ptr %7) #15
  call void @llvm.memset.p0.i64(ptr align 8 %7, i8 0, i64 32, i1 false)
  call void @llvm.lifetime.start.p0(i64 56, ptr %8) #15
  call void @llvm.memset.p0.i64(ptr align 8 %8, i8 0, i64 56, i1 false)
  call void @llvm.lifetime.start.p0(i64 4, ptr %9) #15
  %12 = load ptr, ptr %4, align 8, !tbaa !29
  %13 = getelementptr inbounds nuw %struct.command, ptr %12, i32 0, i32 5
  %14 = load i32, ptr %13, align 4, !tbaa !4
  %15 = srem i32 %14, 32
  %16 = shl i32 1, %15
  store i32 %16, ptr %9, align 4, !tbaa !4
  call void @llvm.lifetime.start.p0(i64 4, ptr %10) #15
  br label %17

17:                                               ; preds = %2
  %18 = call i32 @trace_pass_fl(ptr noundef @trace_shallow)
  %19 = icmp ne i32 %18, 0
  br i1 %19, label %20, label %24

20:                                               ; preds = %17
  %21 = load ptr, ptr %4, align 8, !tbaa !29
  %22 = getelementptr inbounds nuw %struct.command, ptr %21, i32 0, i32 8
  %23 = getelementptr inbounds [0 x i8], ptr %22, i64 0, i64 0
  call void (ptr, i32, ptr, ptr, ...) @trace_printf_key_fl(ptr noundef @.str.10, i32 noundef 1315, ptr noundef @trace_shallow, ptr noundef @.str.206, ptr noundef %23)
  br label %24

24:                                               ; preds = %20, %17
  br label %25

25:                                               ; preds = %24
  br label %26

26:                                               ; preds = %25
  store i32 0, ptr %10, align 4, !tbaa !4
  br label %27

27:                                               ; preds = %78, %26
  %28 = load i32, ptr %10, align 4, !tbaa !4
  %29 = sext i32 %28 to i64
  %30 = load ptr, ptr %5, align 8, !tbaa !100
  %31 = getelementptr inbounds nuw %struct.shallow_info, ptr %30, i32 0, i32 0
  %32 = load ptr, ptr %31, align 8, !tbaa !174
  %33 = getelementptr inbounds nuw %struct.oid_array, ptr %32, i32 0, i32 1
  %34 = load i64, ptr %33, align 8, !tbaa !105
  %35 = icmp ult i64 %29, %34
  br i1 %35, label %36, label %81

36:                                               ; preds = %27
  %37 = load ptr, ptr %5, align 8, !tbaa !100
  %38 = getelementptr inbounds nuw %struct.shallow_info, ptr %37, i32 0, i32 6
  %39 = load ptr, ptr %38, align 8, !tbaa !186
  %40 = load i32, ptr %10, align 4, !tbaa !4
  %41 = sext i32 %40 to i64
  %42 = getelementptr inbounds ptr, ptr %39, i64 %41
  %43 = load ptr, ptr %42, align 8, !tbaa !109
  %44 = icmp ne ptr %43, null
  br i1 %44, label %45, label %77

45:                                               ; preds = %36
  %46 = load ptr, ptr %5, align 8, !tbaa !100
  %47 = getelementptr inbounds nuw %struct.shallow_info, ptr %46, i32 0, i32 6
  %48 = load ptr, ptr %47, align 8, !tbaa !186
  %49 = load i32, ptr %10, align 4, !tbaa !4
  %50 = sext i32 %49 to i64
  %51 = getelementptr inbounds ptr, ptr %48, i64 %50
  %52 = load ptr, ptr %51, align 8, !tbaa !109
  %53 = load ptr, ptr %4, align 8, !tbaa !29
  %54 = getelementptr inbounds nuw %struct.command, ptr %53, i32 0, i32 5
  %55 = load i32, ptr %54, align 4, !tbaa !4
  %56 = sdiv i32 %55, 32
  %57 = sext i32 %56 to i64
  %58 = getelementptr inbounds i32, ptr %52, i64 %57
  %59 = load i32, ptr %58, align 4, !tbaa !4
  %60 = load i32, ptr %9, align 4, !tbaa !4
  %61 = and i32 %59, %60
  %62 = icmp ne i32 %61, 0
  br i1 %62, label %63, label %77

63:                                               ; preds = %45
  %64 = load ptr, ptr %5, align 8, !tbaa !100
  %65 = load i32, ptr %10, align 4, !tbaa !4
  %66 = call i32 @delayed_reachability_test(ptr noundef %64, i32 noundef %65)
  %67 = icmp ne i32 %66, 0
  br i1 %67, label %77, label %68

68:                                               ; preds = %63
  %69 = load ptr, ptr %5, align 8, !tbaa !100
  %70 = getelementptr inbounds nuw %struct.shallow_info, ptr %69, i32 0, i32 0
  %71 = load ptr, ptr %70, align 8, !tbaa !174
  %72 = getelementptr inbounds nuw %struct.oid_array, ptr %71, i32 0, i32 0
  %73 = load ptr, ptr %72, align 8, !tbaa !231
  %74 = load i32, ptr %10, align 4, !tbaa !4
  %75 = sext i32 %74 to i64
  %76 = getelementptr inbounds %struct.object_id, ptr %73, i64 %75
  call void @oid_array_append(ptr noundef %7, ptr noundef %76)
  br label %77

77:                                               ; preds = %68, %63, %45, %36
  br label %78

78:                                               ; preds = %77
  %79 = load i32, ptr %10, align 4, !tbaa !4
  %80 = add nsw i32 %79, 1
  store i32 %80, ptr %10, align 4, !tbaa !4
  br label %27, !llvm.loop !232

81:                                               ; preds = %27
  %82 = load ptr, ptr @tmp_objdir, align 8, !tbaa !119
  %83 = call ptr @tmp_objdir_env(ptr noundef %82)
  %84 = getelementptr inbounds nuw %struct.check_connected_options, ptr %8, i32 0, i32 5
  store ptr %83, ptr %84, align 8, !tbaa !121
  %85 = getelementptr inbounds nuw %struct.check_connected_options, ptr %8, i32 0, i32 1
  call void @setup_alternate_shallow(ptr noundef %6, ptr noundef %85, ptr noundef %7)
  %86 = load ptr, ptr %4, align 8, !tbaa !29
  %87 = call i32 @check_connected(ptr noundef @command_singleton_iterator, ptr noundef %86, ptr noundef %8)
  %88 = icmp ne i32 %87, 0
  br i1 %88, label %89, label %91

89:                                               ; preds = %81
  %90 = load ptr, ptr @the_repository, align 8, !tbaa !13
  call void @rollback_shallow_file(ptr noundef %90, ptr noundef %6)
  call void @oid_array_clear(ptr noundef %7)
  store i32 -1, ptr %3, align 4
  store i32 1, ptr %11, align 4
  br label %120

91:                                               ; preds = %81
  %92 = load ptr, ptr @the_repository, align 8, !tbaa !13
  %93 = call i32 @commit_shallow_file(ptr noundef %92, ptr noundef %6)
  store i32 0, ptr %10, align 4, !tbaa !4
  br label %94

94:                                               ; preds = %108, %91
  %95 = load i32, ptr %10, align 4, !tbaa !4
  %96 = sext i32 %95 to i64
  %97 = getelementptr inbounds nuw %struct.oid_array, ptr %7, i32 0, i32 1
  %98 = load i64, ptr %97, align 8, !tbaa !105
  %99 = icmp ult i64 %96, %98
  br i1 %99, label %100, label %111

100:                                              ; preds = %94
  %101 = load ptr, ptr @the_repository, align 8, !tbaa !13
  %102 = getelementptr inbounds nuw %struct.oid_array, ptr %7, i32 0, i32 0
  %103 = load ptr, ptr %102, align 8, !tbaa !231
  %104 = load i32, ptr %10, align 4, !tbaa !4
  %105 = sext i32 %104 to i64
  %106 = getelementptr inbounds %struct.object_id, ptr %103, i64 %105
  %107 = call i32 @register_shallow(ptr noundef %101, ptr noundef %106)
  br label %108

108:                                              ; preds = %100
  %109 = load i32, ptr %10, align 4, !tbaa !4
  %110 = add nsw i32 %109, 1
  store i32 %110, ptr %10, align 4, !tbaa !4
  br label %94, !llvm.loop !233

111:                                              ; preds = %94
  %112 = load ptr, ptr %5, align 8, !tbaa !100
  %113 = getelementptr inbounds nuw %struct.shallow_info, ptr %112, i32 0, i32 9
  %114 = load ptr, ptr %113, align 8, !tbaa !189
  %115 = load ptr, ptr %4, align 8, !tbaa !29
  %116 = getelementptr inbounds nuw %struct.command, ptr %115, i32 0, i32 5
  %117 = load i32, ptr %116, align 4, !tbaa !4
  %118 = sext i32 %117 to i64
  %119 = getelementptr inbounds i32, ptr %114, i64 %118
  store i32 0, ptr %119, align 4, !tbaa !4
  call void @oid_array_clear(ptr noundef %7)
  store i32 0, ptr %3, align 4
  store i32 1, ptr %11, align 4
  br label %120

120:                                              ; preds = %111, %89
  call void @llvm.lifetime.end.p0(i64 4, ptr %10) #15
  call void @llvm.lifetime.end.p0(i64 4, ptr %9) #15
  call void @llvm.lifetime.end.p0(i64 56, ptr %8) #15
  call void @llvm.lifetime.end.p0(i64 32, ptr %7) #15
  call void @llvm.lifetime.end.p0(i64 8, ptr %6) #15
  %121 = load i32, ptr %3, align 4
  ret i32 %121
}